target datalayout = "e-m:e-p270:32:32-p271:32:32-p272:64:64-i64:64-i128:128-f80:128-n8:16:32:64-S128"
target triple = "x86_64-pc-linux-gnu"

; Function Attrs: mustprogress nounwind uwtable
define dso_local noundef zeroext i1 @_ZN4llvm3X865isMOVEj(i32 noundef %0) #0 {
  %2 = alloca i1, align 1
  %3 = alloca i32, align 4
  store i32 %0, ptr %3, align 4
  %4 = load i32, ptr %3, align 4
  switch i32 %4, label %6 [
    i32 2497, label %5
    i32 2498, label %5
    i32 2500, label %5
    i32 2501, label %5
    i32 2502, label %5
    i32 2503, label %5
    i32 2504, label %5
    i32 2506, label %5
    i32 2507, label %5
    i32 2508, label %5
    i32 2509, label %5
    i32 2510, label %5
    i32 2511, label %5
    i32 2512, label %5
    i32 2513, label %5
    i32 2514, label %5
    i32 2515, label %5
    i32 2517, label %5
    i32 2518, label %5
    i32 2519, label %5
    i32 2520, label %5
    i32 2521, label %5
    i32 2522, label %5
    i32 2524, label %5
    i32 2525, label %5
    i32 2526, label %5
    i32 2527, label %5
    i32 2528, label %5
    i32 2529, label %5
    i32 2530, label %5
    i32 2531, label %5
    i32 2532, label %5
    i32 2533, label %5
    i32 2535, label %5
    i32 2536, label %5
    i32 2537, label %5
    i32 2538, label %5
    i32 2539, label %5
    i32 2541, label %5
    i32 2542, label %5
    i32 2544, label %5
    i32 2545, label %5
    i32 2546, label %5
    i32 2547, label %5
    i32 2548, label %5
    i32 2549, label %5
    i32 2553, label %5
    i32 2554, label %5
    i32 2556, label %5
    i32 2557, label %5
    i32 2559, label %5
    i32 2560, label %5
    i32 2562, label %5
    i32 2563, label %5
    i32 2564, label %5
    i32 2566, label %5
    i32 2568, label %5
  ]

5:                                                ; preds = %1, %1, %1, %1, %1, %1, %1, %1, %1, %1, %1, %1, %1, %1, %1, %1, %1, %1, %1, %1, %1, %1, %1, %1, %1, %1, %1, %1, %1, %1, %1, %1, %1, %1, %1, %1, %1, %1, %1, %1, %1, %1, %1, %1, %1, %1, %1, %1, %1, %1, %1, %1, %1, %1, %1, %1, %1
  store i1 true, ptr %2, align 1
  br label %7

6:                                                ; preds = %1
  store i1 false, ptr %2, align 1
  br label %7

7:                                                ; preds = %6, %5
  %8 = load i1, ptr %2, align 1
  ret i1 %8
}