; Function Attrs: mustprogress nofree norecurse nosync nounwind willreturn memory(none) uwtable
define dso_local noundef zeroext i1 @_ZN4llvm3X865isMOVEj(i32 noundef %0) local_unnamed_addr #0 {
  switch i32 %0, label %2 [
    i32 2497, label %3
    i32 2498, label %3
    i32 2500, label %3
    i32 2501, label %3
    i32 2502, label %3
    i32 2503, label %3
    i32 2504, label %3
    i32 2506, label %3
    i32 2507, label %3
    i32 2508, label %3
    i32 2509, label %3
    i32 2510, label %3
    i32 2511, label %3
    i32 2512, label %3
    i32 2513, label %3
    i32 2514, label %3
    i32 2515, label %3
    i32 2517, label %3
    i32 2518, label %3
    i32 2519, label %3
    i32 2520, label %3
    i32 2521, label %3
    i32 2522, label %3
    i32 2524, label %3
    i32 2525, label %3
    i32 2526, label %3
    i32 2527, label %3
    i32 2528, label %3
    i32 2529, label %3
    i32 2530, label %3
    i32 2531, label %3
    i32 2532, label %3
    i32 2533, label %3
    i32 2535, label %3
    i32 2536, label %3
    i32 2537, label %3
    i32 2538, label %3
    i32 2539, label %3
    i32 2541, label %3
    i32 2542, label %3
    i32 2544, label %3
    i32 2545, label %3
    i32 2546, label %3
    i32 2547, label %3
    i32 2548, label %3
    i32 2549, label %3
    i32 2553, label %3
    i32 2554, label %3
    i32 2556, label %3
    i32 2557, label %3
    i32 2559, label %3
    i32 2560, label %3
    i32 2562, label %3
    i32 2563, label %3
    i32 2564, label %3
    i32 2566, label %3
    i32 2568, label %3
  ]

2:                                                ; preds = %1
  br label %3

3:                                                ; preds = %1, %1, %1, %1, %1, %1, %1, %1, %1, %1, %1, %1, %1, %1, %1, %1, %1, %1, %1, %1, %1, %1, %1, %1, %1, %1, %1, %1, %1, %1, %1, %1, %1, %1, %1, %1, %1, %1, %1, %1, %1, %1, %1, %1, %1, %1, %1, %1, %1, %1, %1, %1, %1, %1, %1, %1, %1, %2
  %.0 = phi i1 [ false, %2 ], [ true, %1 ], [ true, %1 ], [ true, %1 ], [ true, %1 ], [ true, %1 ], [ true, %1 ], [ true, %1 ], [ true, %1 ], [ true, %1 ], [ true, %1 ], [ true, %1 ], [ true, %1 ], [ true, %1 ], [ true, %1 ], [ true, %1 ], [ true, %1 ], [ true, %1 ], [ true, %1 ], [ true, %1 ], [ true, %1 ], [ true, %1 ], [ true, %1 ], [ true, %1 ], [ true, %1 ], [ true, %1 ], [ true, %1 ], [ true, %1 ], [ true, %1 ], [ true, %1 ], [ true, %1 ], [ true, %1 ], [ true, %1 ], [ true, %1 ], [ true, %1 ], [ true, %1 ], [ true, %1 ], [ true, %1 ], [ true, %1 ], [ true, %1 ], [ true, %1 ], [ true, %1 ], [ true, %1 ], [ true, %1 ], [ true, %1 ], [ true, %1 ], [ true, %1 ], [ true, %1 ], [ true, %1 ], [ true, %1 ], [ true, %1 ], [ true, %1 ], [ true, %1 ], [ true, %1 ], [ true, %1 ], [ true, %1 ], [ true, %1 ], [ true, %1 ]
  ret i1 %.0
}